; ModuleID = '57/1866.c'
source_filename = "57/1866.c"
target datalayout = "e-m:e-p270:32:32-p271:32:32-p272:64:64-i64:64-f80:128-n8:16:32:64-S128"
target triple = "x86_64-pc-linux-gnu"

@.str = private unnamed_addr constant [3 x i8] c"%d\00", align 1
@.str.1 = private unnamed_addr constant [3 x i8] c"%s\00", align 1

; Function Attrs: noinline nounwind uwtable
define dso_local i32 @main() #0 {
  %1 = alloca i32, align 4
  %2 = alloca i32, align 4
  %3 = alloca i32, align 4
  %4 = alloca [50 x [50 x i8]], align 16
  %5 = alloca i32, align 4
  store i32 0, i32* %1, align 4
  %6 = call i32 (i8*, ...) @__isoc99_scanf(i8* getelementptr inbounds ([3 x i8], [3 x i8]* @.str, i64 0, i64 0), i32* %2)
  store i32 0, i32* %5, align 4
  br label %7

7:                                                ; preds = %88, %0
  %8 = load i32, i32* %5, align 4
  %9 = load i32, i32* %2, align 4
  %10 = icmp slt i32 %8, %9
  br i1 %10, label %11, label %91

11:                                               ; preds = %7
  %12 = load i32, i32* %5, align 4
  %13 = sext i32 %12 to i64
  %14 = getelementptr inbounds [50 x [50 x i8]], [50 x [50 x i8]]* %4, i64 0, i64 %13
  %15 = getelementptr inbounds [50 x i8], [50 x i8]* %14, i64 0, i64 0
  %16 = call i32 (i8*, ...) @__isoc99_scanf(i8* getelementptr inbounds ([3 x i8], [3 x i8]* @.str.1, i64 0, i64 0), i8* %15)
  %17 = load i32, i32* %5, align 4
  %18 = sext i32 %17 to i64
  %19 = getelementptr inbounds [50 x [50 x i8]], [50 x [50 x i8]]* %4, i64 0, i64 %18
  %20 = getelementptr inbounds [50 x i8], [50 x i8]* %19, i64 0, i64 0
  %21 = call i64 @strlen(i8* %20) #3
  %22 = trunc i64 %21 to i32
  store i32 %22, i32* %3, align 4
  %23 = load i32, i32* %5, align 4
  %24 = sext i32 %23 to i64
  %25 = getelementptr inbounds [50 x [50 x i8]], [50 x [50 x i8]]* %4, i64 0, i64 %24
  %26 = load i32, i32* %3, align 4
  %27 = sub nsw i32 %26, 1
  %28 = sext i32 %27 to i64
  %29 = getelementptr inbounds [50 x i8], [50 x i8]* %25, i64 0, i64 %28
  %30 = load i8, i8* %29, align 1
  %31 = sext i8 %30 to i32
  %32 = icmp eq i32 %31, 114
  br i1 %32, label %33, label %44

33:                                               ; preds = %11
  %34 = load i32, i32* %5, align 4
  %35 = sext i32 %34 to i64
  %36 = getelementptr inbounds [50 x [50 x i8]], [50 x [50 x i8]]* %4, i64 0, i64 %35
  %37 = load i32, i32* %3, align 4
  %38 = sub nsw i32 %37, 2
  %39 = sext i32 %38 to i64
  %40 = getelementptr inbounds [50 x i8], [50 x i8]* %36, i64 0, i64 %39
  %41 = load i8, i8* %40, align 1
  %42 = sext i8 %41 to i32
  %43 = icmp eq i32 %42, 101
  br i1 %43, label %66, label %44

44:                                               ; preds = %33, %11
  %45 = load i32, i32* %5, align 4
  %46 = sext i32 %45 to i64
  %47 = getelementptr inbounds [50 x [50 x i8]], [50 x [50 x i8]]* %4, i64 0, i64 %46
  %48 = load i32, i32* %3, align 4
  %49 = sub nsw i32 %48, 1
  %50 = sext i32 %49 to i64
  %51 = getelementptr inbounds [50 x i8], [50 x i8]* %47, i64 0, i64 %50
  %52 = load i8, i8* %51, align 1
  %53 = sext i8 %52 to i32
  %54 = icmp eq i32 %53, 121
  br i1 %54, label %55, label %74

55:                                               ; preds = %44
  %56 = load i32, i32* %5, align 4
  %57 = sext i32 %56 to i64
  %58 = getelementptr inbounds [50 x [50 x i8]], [50 x [50 x i8]]* %4, i64 0, i64 %57
  %59 = load i32, i32* %3, align 4
  %60 = sub nsw i32 %59, 2
  %61 = sext i32 %60 to i64
  %62 = getelementptr inbounds [50 x i8], [50 x i8]* %58, i64 0, i64 %61
  %63 = load i8, i8* %62, align 1
  %64 = sext i8 %63 to i32
  %65 = icmp eq i32 %64, 108
  br i1 %65, label %66, label %74

66:                                               ; preds = %55, %33
  %67 = load i32, i32* %5, align 4
  %68 = sext i32 %67 to i64
  %69 = getelementptr inbounds [50 x [50 x i8]], [50 x [50 x i8]]* %4, i64 0, i64 %68
  %70 = load i32, i32* %3, align 4
  %71 = sub nsw i32 %70, 2
  %72 = sext i32 %71 to i64
  %73 = getelementptr inbounds [50 x i8], [50 x i8]* %69, i64 0, i64 %72
  store i8 0, i8* %73, align 1
  br label %82

74:                                               ; preds = %55, %44
  %75 = load i32, i32* %5, align 4
  %76 = sext i32 %75 to i64
  %77 = getelementptr inbounds [50 x [50 x i8]], [50 x [50 x i8]]* %4, i64 0, i64 %76
  %78 = load i32, i32* %3, align 4
  %79 = sub nsw i32 %78, 3
  %80 = sext i32 %79 to i64
  %81 = getelementptr inbounds [50 x i8], [50 x i8]* %77, i64 0, i64 %80
  store i8 0, i8* %81, align 1
  br label %82

82:                                               ; preds = %74, %66
  %83 = load i32, i32* %5, align 4
  %84 = sext i32 %83 to i64
  %85 = getelementptr inbounds [50 x [50 x i8]], [50 x [50 x i8]]* %4, i64 0, i64 %84
  %86 = getelementptr inbounds [50 x i8], [50 x i8]* %85, i64 0, i64 0
  %87 = call i32 @puts(i8* %86)
  br label %88

88:                                               ; preds = %82
  %89 = load i32, i32* %5, align 4
  %90 = add nsw i32 %89, 1
  store i32 %90, i32* %5, align 4
  br label %7

91:                                               ; preds = %7
  ret i32 0
}

declare dso_local i32 @__isoc99_scanf(i8*, ...) #1

; Function Attrs: nounwind readonly
declare dso_local i64 @strlen(i8*) #2

declare dso_local i32 @puts(i8*) #1


!llvm.module.flags = !{!0}
!llvm.ident = !{!1}

!0 = !{i32 1, !"wchar_size", i32 4}
!1 = !{!"clang version 10.0.0-4ubuntu1 "}
